; Function Attrs: mustprogress uwtable
define noundef zeroext i1 @_ZNK8QuantLib35RendistatoEquivalentSwapLengthQuote7isValidEv(ptr noundef nonnull align 8 dereferenceable(24) %this) unnamed_addr #8 align 2 personality ptr @__gxx_personality_v0 {
entry:
  %vtable = load ptr, ptr %this, align 8, !tbaa !33
  %vfn = getelementptr inbounds i8, ptr %vtable, i64 16
  %0 = load ptr, ptr %vfn, align 8
  %call = invoke noundef double %0(ptr noundef nonnull align 8 dereferenceable(24) %this)
          to label %return unwind label %lpad

lpad:                                             ; preds = %entry
  %1 = landingpad { ptr, i32 }
          catch ptr null
  %2 = extractvalue { ptr, i32 } %1, 0
  %3 = tail call ptr @__cxa_begin_catch(ptr %2) #30
  tail call void @__cxa_end_catch()
  br label %return

return:                                           ; preds = %entry, %lpad
  %retval.0 = phi i1 [ false, %lpad ], [ true, %entry ]
  ret i1 %retval.0
}